target datalayout = "e-m:e-p270:32:32-p271:32:32-p272:64:64-i64:64-i128:128-f80:128-n8:16:32:64-S128"
target triple = "x86_64-pc-linux-gnu"

%"struct.duckdb_zstd::ZSTD_customMem" = type { ptr, ptr, ptr }
%"struct.duckdb_zstd::ZSTD_frameParameters" = type { i32, i32, i32 }
%"struct.duckdb_zstd::ZSTD_compressionParameters" = type { i32, i32, i32, i32, i32, i32, i32 }
%"struct.duckdb_zstd::ZSTD_CCtx_s" = type { i32, i32, i32, %"struct.duckdb_zstd::ZSTD_CCtx_params_s", %"struct.duckdb_zstd::ZSTD_CCtx_params_s", %"struct.duckdb_zstd::ZSTD_CCtx_params_s", i32, i64, %"struct.duckdb_zstd::ZSTD_cwksp", i64, i64, i64, i64, %"struct.duckdb_zstd::XXH64_state_s", %"struct.duckdb_zstd::ZSTD_customMem", ptr, i64, %"struct.duckdb_zstd::SeqCollector", i32, i32, %"struct.duckdb_zstd::seqStore_t", %"struct.duckdb_zstd::ldmState_t", ptr, i64, %"struct.duckdb_zstd::rawSeqStore_t", %"struct.duckdb_zstd::ZSTD_blockState_t", ptr, i32, ptr, i64, i64, i64, i64, ptr, i64, i64, i64, i32, i32, %"struct.duckdb_zstd::ZSTD_inBuffer_s", i64, i64, %"struct.duckdb_zstd::ZSTD_localDict", ptr, %"struct.duckdb_zstd::ZSTD_prefixDict_s", i64, %"struct.duckdb_zstd::ZSTD_blockSplitCtx", ptr, i64 }
%"struct.duckdb_zstd::ZSTD_CCtx_params_s" = type { i32, %"struct.duckdb_zstd::ZSTD_compressionParameters", %"struct.duckdb_zstd::ZSTD_frameParameters", i32, i32, i64, i32, i32, i32, i32, i64, i32, i32, %"struct.duckdb_zstd::ldmParams_t", i32, i32, i32, i32, i32, i32, i32, i32, %"struct.duckdb_zstd::ZSTD_customMem", i32, i32, ptr, ptr, i64, i32 }
%"struct.duckdb_zstd::ldmParams_t" = type { i32, i32, i32, i32, i32, i32 }
%"struct.duckdb_zstd::ZSTD_cwksp" = type { ptr, ptr, ptr, ptr, ptr, ptr, ptr, i8, i32, i32, i32 }
%"struct.duckdb_zstd::XXH64_state_s" = type { i64, i64, i64, i64, i64, [4 x i64], i32, [2 x i32] }
%"struct.duckdb_zstd::SeqCollector" = type { i32, ptr, i64, i64 }
%"struct.duckdb_zstd::seqStore_t" = type { ptr, ptr, ptr, ptr, ptr, ptr, ptr, i64, i64, i32, i32 }
%"struct.duckdb_zstd::ldmState_t" = type { %"struct.duckdb_zstd::ZSTD_window_t", ptr, i32, ptr, [64 x i64], [64 x %"struct.duckdb_zstd::ldmMatchCandidate_t"] }
%"struct.duckdb_zstd::ZSTD_window_t" = type { ptr, ptr, ptr, i32, i32, i32 }
%"struct.duckdb_zstd::ldmMatchCandidate_t" = type { ptr, i32, i32, ptr }
%"struct.duckdb_zstd::rawSeqStore_t" = type { ptr, i64, i64, i64, i64 }
%"struct.duckdb_zstd::ZSTD_blockState_t" = type { ptr, ptr, %"struct.duckdb_zstd::ZSTD_matchState_t" }
%"struct.duckdb_zstd::ZSTD_matchState_t" = type { %"struct.duckdb_zstd::ZSTD_window_t", i32, i32, i32, i32, ptr, [8 x i32], i64, i32, ptr, ptr, ptr, i32, i32, %"struct.duckdb_zstd::optState_t", ptr, %"struct.duckdb_zstd::ZSTD_compressionParameters", ptr, i32, i32 }
%"struct.duckdb_zstd::optState_t" = type { ptr, ptr, ptr, ptr, ptr, ptr, i32, i32, i32, i32, i32, i32, i32, i32, i32, ptr, i32 }
%"struct.duckdb_zstd::ZSTD_inBuffer_s" = type { ptr, i64, i64 }
%"struct.duckdb_zstd::ZSTD_localDict" = type { ptr, ptr, i64, i32, ptr }
%"struct.duckdb_zstd::ZSTD_prefixDict_s" = type { ptr, i64, i32 }
%"struct.duckdb_zstd::ZSTD_blockSplitCtx" = type { %"struct.duckdb_zstd::seqStore_t", %"struct.duckdb_zstd::seqStore_t", %"struct.duckdb_zstd::seqStore_t", %"struct.duckdb_zstd::seqStore_t", %"struct.duckdb_zstd::seqStore_t", [196 x i32], %"struct.duckdb_zstd::ZSTD_entropyCTablesMetadata_t" }
%"struct.duckdb_zstd::ZSTD_entropyCTablesMetadata_t" = type { %"struct.duckdb_zstd::ZSTD_hufCTablesMetadata_t", %"struct.duckdb_zstd::ZSTD_fseCTablesMetadata_t" }
%"struct.duckdb_zstd::ZSTD_hufCTablesMetadata_t" = type { i32, [128 x i8], i64 }
%"struct.duckdb_zstd::ZSTD_fseCTablesMetadata_t" = type { i32, i32, i32, [133 x i8], i64, i64 }

; Function Attrs: inlinehint mustprogress uwtable
define internal noundef ptr @_ZN11duckdb_zstdL17ZSTD_customMallocEmNS_14ZSTD_customMemE(i64 noundef %0, ptr noundef byval(%"struct.duckdb_zstd::ZSTD_customMem") align 8 %1) #4 {
  %3 = alloca ptr, align 8
  %4 = alloca i64, align 8
  store i64 %0, ptr %4, align 8, !tbaa !3
  %5 = getelementptr inbounds nuw %"struct.duckdb_zstd::ZSTD_customMem", ptr %1, i32 0, i32 0
  %6 = load ptr, ptr %5, align 8, !tbaa !10
  %7 = icmp ne ptr %6, null
  br i1 %7, label %8, label %15

8:                                                ; preds = %2
  %9 = getelementptr inbounds nuw %"struct.duckdb_zstd::ZSTD_customMem", ptr %1, i32 0, i32 0
  %10 = load ptr, ptr %9, align 8, !tbaa !10
  %11 = getelementptr inbounds nuw %"struct.duckdb_zstd::ZSTD_customMem", ptr %1, i32 0, i32 2
  %12 = load ptr, ptr %11, align 8, !tbaa !15
  %13 = load i64, ptr %4, align 8, !tbaa !3
  %14 = call noundef ptr %10(ptr noundef %12, i64 noundef %13)
  store ptr %14, ptr %3, align 8
  br label %18

15:                                               ; preds = %2
  %16 = load i64, ptr %4, align 8, !tbaa !3
  %17 = call noalias ptr @malloc(i64 noundef %16) #17
  store ptr %17, ptr %3, align 8
  br label %18

18:                                               ; preds = %15, %8
  %19 = load ptr, ptr %3, align 8
  ret ptr %19
}

; Function Attrs: mustprogress uwtable
define noundef i64 @_ZN11duckdb_zstd33ZSTD_CCtx_loadDictionary_advancedEPNS_11ZSTD_CCtx_sEPKvmNS_21ZSTD_dictLoadMethod_eENS_22ZSTD_dictContentType_eE(ptr noundef %0, ptr noundef %1, i64 noundef %2, i32 noundef %3, i32 noundef %4) #2 {
  %6 = alloca i64, align 8
  %7 = alloca ptr, align 8
  %8 = alloca ptr, align 8
  %9 = alloca i64, align 8
  %10 = alloca i32, align 4
  %11 = alloca i32, align 4
  %12 = alloca ptr, align 8
  %13 = alloca i32, align 4
  %14 = alloca %"struct.duckdb_zstd::ZSTD_customMem", align 8
  store ptr %0, ptr %7, align 8, !tbaa !13
  store ptr %1, ptr %8, align 8, !tbaa !8
  store i64 %2, ptr %9, align 8, !tbaa !3
  store i32 %3, ptr %10, align 4, !tbaa !164
  store i32 %4, ptr %11, align 4, !tbaa !91
  br label %15

15:                                               ; preds = %5
  br label %16

16:                                               ; preds = %15
  br label %17

17:                                               ; preds = %16
  %18 = load ptr, ptr %7, align 8, !tbaa !13
  %19 = getelementptr inbounds nuw %"struct.duckdb_zstd::ZSTD_CCtx_s", ptr %18, i32 0, i32 37
  %20 = load i32, ptr %19, align 8, !tbaa !122
  %21 = icmp ne i32 %20, 0
  br i1 %21, label %22, label %31

22:                                               ; preds = %17
  br label %23

23:                                               ; preds = %22
  br label %24

24:                                               ; preds = %23
  br label %25

25:                                               ; preds = %24
  br label %26

26:                                               ; preds = %25
  br label %27

27:                                               ; preds = %26
  br label %28

28:                                               ; preds = %27
  br label %29

29:                                               ; preds = %28
  br label %30

30:                                               ; preds = %29
  store i64 -60, ptr %6, align 8
  br label %116

31:                                               ; preds = %17
  br label %32

32:                                               ; preds = %31
  %33 = load ptr, ptr %7, align 8, !tbaa !13
  call void @_ZN11duckdb_zstdL18ZSTD_clearAllDictsEPNS_11ZSTD_CCtx_sE(ptr noundef %33)
  %34 = load ptr, ptr %8, align 8, !tbaa !8
  %35 = icmp eq ptr %34, null
  br i1 %35, label %39, label %36

36:                                               ; preds = %32
  %37 = load i64, ptr %9, align 8, !tbaa !3
  %38 = icmp eq i64 %37, 0
  br i1 %38, label %39, label %40

39:                                               ; preds = %36, %32
  store i64 0, ptr %6, align 8
  br label %116

40:                                               ; preds = %36
  %41 = load i32, ptr %10, align 4, !tbaa !164
  %42 = icmp eq i32 %41, 1
  br i1 %42, label %43, label %48

43:                                               ; preds = %40
  %44 = load ptr, ptr %8, align 8, !tbaa !8
  %45 = load ptr, ptr %7, align 8, !tbaa !13
  %46 = getelementptr inbounds nuw %"struct.duckdb_zstd::ZSTD_CCtx_s", ptr %45, i32 0, i32 42
  %47 = getelementptr inbounds nuw %"struct.duckdb_zstd::ZSTD_localDict", ptr %46, i32 0, i32 1
  store ptr %44, ptr %47, align 8, !tbaa !166
  br label %107

48:                                               ; preds = %40
  call void @llvm.lifetime.start.p0(i64 8, ptr %12) #16
  br label %49

49:                                               ; preds = %48
  %50 = load ptr, ptr %7, align 8, !tbaa !13
  %51 = getelementptr inbounds nuw %"struct.duckdb_zstd::ZSTD_CCtx_s", ptr %50, i32 0, i32 16
  %52 = load i64, ptr %51, align 8, !tbaa !62
  %53 = icmp ne i64 %52, 0
  br i1 %53, label %54, label %67

54:                                               ; preds = %49
  br label %55

55:                                               ; preds = %54
  br label %56

56:                                               ; preds = %55
  br label %57

57:                                               ; preds = %56
  br label %58

58:                                               ; preds = %57
  br label %59

59:                                               ; preds = %58
  br label %60

60:                                               ; preds = %59
  br label %61

61:                                               ; preds = %60
  br label %62

62:                                               ; preds = %61
  br label %63

63:                                               ; preds = %62
  br label %64

64:                                               ; preds = %63
  br label %65

65:                                               ; preds = %64
  br label %66

66:                                               ; preds = %65
  store i64 -64, ptr %6, align 8
  store i32 1, ptr %13, align 4
  br label %104

67:                                               ; preds = %49
  br label %68

68:                                               ; preds = %67
  br label %69

69:                                               ; preds = %68
  %70 = load i64, ptr %9, align 8, !tbaa !3
  %71 = load ptr, ptr %7, align 8, !tbaa !13
  %72 = getelementptr inbounds nuw %"struct.duckdb_zstd::ZSTD_CCtx_s", ptr %71, i32 0, i32 14
  call void @llvm.memcpy.p0.p0.i64(ptr align 8 %14, ptr align 8 %72, i64 24, i1 false), !tbaa.struct !7
  %73 = call noundef ptr @_ZN11duckdb_zstdL17ZSTD_customMallocEmNS_14ZSTD_customMemE(i64 noundef %70, ptr noundef byval(%"struct.duckdb_zstd::ZSTD_customMem") align 8 %14)
  store ptr %73, ptr %12, align 8, !tbaa !8
  br label %74

74:                                               ; preds = %69
  %75 = load ptr, ptr %12, align 8, !tbaa !8
  %76 = icmp eq ptr %75, null
  br i1 %76, label %77, label %90

77:                                               ; preds = %74
  br label %78

78:                                               ; preds = %77
  br label %79

79:                                               ; preds = %78
  br label %80

80:                                               ; preds = %79
  br label %81

81:                                               ; preds = %80
  br label %82

82:                                               ; preds = %81
  br label %83

83:                                               ; preds = %82
  br label %84

84:                                               ; preds = %83
  br label %85

85:                                               ; preds = %84
  br label %86

86:                                               ; preds = %85
  br label %87

87:                                               ; preds = %86
  br label %88

88:                                               ; preds = %87
  br label %89

89:                                               ; preds = %88
  store i64 -64, ptr %6, align 8
  store i32 1, ptr %13, align 4
  br label %104

90:                                               ; preds = %74
  br label %91

91:                                               ; preds = %90
  br label %92

92:                                               ; preds = %91
  %93 = load ptr, ptr %12, align 8, !tbaa !8
  %94 = load ptr, ptr %8, align 8, !tbaa !8
  %95 = load i64, ptr %9, align 8, !tbaa !3
  call void @llvm.memcpy.p0.p0.i64(ptr align 1 %93, ptr align 1 %94, i64 %95, i1 false)
  %96 = load ptr, ptr %12, align 8, !tbaa !8
  %97 = load ptr, ptr %7, align 8, !tbaa !13
  %98 = getelementptr inbounds nuw %"struct.duckdb_zstd::ZSTD_CCtx_s", ptr %97, i32 0, i32 42
  %99 = getelementptr inbounds nuw %"struct.duckdb_zstd::ZSTD_localDict", ptr %98, i32 0, i32 0
  store ptr %96, ptr %99, align 8, !tbaa !167
  %100 = load ptr, ptr %12, align 8, !tbaa !8
  %101 = load ptr, ptr %7, align 8, !tbaa !13
  %102 = getelementptr inbounds nuw %"struct.duckdb_zstd::ZSTD_CCtx_s", ptr %101, i32 0, i32 42
  %103 = getelementptr inbounds nuw %"struct.duckdb_zstd::ZSTD_localDict", ptr %102, i32 0, i32 1
  store ptr %100, ptr %103, align 8, !tbaa !166
  store i32 0, ptr %13, align 4
  br label %104

104:                                              ; preds = %92, %89, %66
  call void @llvm.lifetime.end.p0(i64 8, ptr %12) #16
  %105 = load i32, ptr %13, align 4
  switch i32 %105, label %118 [
    i32 0, label %106
    i32 1, label %116
  ]

106:                                              ; preds = %104
  br label %107

107:                                              ; preds = %106, %43
  %108 = load i64, ptr %9, align 8, !tbaa !3
  %109 = load ptr, ptr %7, align 8, !tbaa !13
  %110 = getelementptr inbounds nuw %"struct.duckdb_zstd::ZSTD_CCtx_s", ptr %109, i32 0, i32 42
  %111 = getelementptr inbounds nuw %"struct.duckdb_zstd::ZSTD_localDict", ptr %110, i32 0, i32 2
  store i64 %108, ptr %111, align 8, !tbaa !168
  %112 = load i32, ptr %11, align 4, !tbaa !91
  %113 = load ptr, ptr %7, align 8, !tbaa !13
  %114 = getelementptr inbounds nuw %"struct.duckdb_zstd::ZSTD_CCtx_s", ptr %113, i32 0, i32 42
  %115 = getelementptr inbounds nuw %"struct.duckdb_zstd::ZSTD_localDict", ptr %114, i32 0, i32 3
  store i32 %112, ptr %115, align 8, !tbaa !169
  store i64 0, ptr %6, align 8
  br label %116

116:                                              ; preds = %107, %104, %39, %30
  %117 = load i64, ptr %6, align 8
  ret i64 %117

118:                                              ; preds = %104
  unreachable
}

; Function Attrs: mustprogress uwtable
define noundef i64 @_ZN11duckdb_zstd24ZSTD_CCtx_loadDictionaryEPNS_11ZSTD_CCtx_sEPKvm(ptr noundef %0, ptr noundef %1, i64 noundef %2) #2 {
  %4 = alloca ptr, align 8
  %5 = alloca ptr, align 8
  %6 = alloca i64, align 8
  store ptr %0, ptr %4, align 8, !tbaa !13
  store ptr %1, ptr %5, align 8, !tbaa !8
  store i64 %2, ptr %6, align 8, !tbaa !3
  %7 = load ptr, ptr %4, align 8, !tbaa !13
  %8 = load ptr, ptr %5, align 8, !tbaa !8
  %9 = load i64, ptr %6, align 8, !tbaa !3
  %10 = call noundef i64 @_ZN11duckdb_zstd33ZSTD_CCtx_loadDictionary_advancedEPNS_11ZSTD_CCtx_sEPKvmNS_21ZSTD_dictLoadMethod_eENS_22ZSTD_dictContentType_eE(ptr noundef %7, ptr noundef %8, i64 noundef %9, i32 noundef 0, i32 noundef 0)
  ret i64 %10
}