; Function Attrs: mustprogress uwtable
define noundef range(i64 -64, 1) i64 @_ZN11duckdb_zstd24ZSTD_CCtx_loadDictionaryEPNS_11ZSTD_CCtx_sEPKvm(ptr noundef captures(none) %0, ptr noundef readonly captures(address_is_null) %1, i64 noundef %2) local_unnamed_addr #2 {
  %4 = getelementptr inbounds nuw i8, ptr %0, i64 3608
  %5 = load i32, ptr %4, align 8, !tbaa !99
  %.not.i = icmp eq i32 %5, 0
  br i1 %.not.i, label %6, label %_ZN11duckdb_zstd33ZSTD_CCtx_loadDictionary_advancedEPNS_11ZSTD_CCtx_sEPKvmNS_21ZSTD_dictLoadMethod_eENS_22ZSTD_dictContentType_eE.exit

6:                                                ; preds = %3
  tail call fastcc void @_ZN11duckdb_zstdL18ZSTD_clearAllDictsEPNS_11ZSTD_CCtx_sE(ptr noundef nonnull %0)
  %7 = icmp eq ptr %1, null
  %8 = icmp eq i64 %2, 0
  %or.cond.i = or i1 %7, %8
  br i1 %or.cond.i, label %_ZN11duckdb_zstd33ZSTD_CCtx_loadDictionary_advancedEPNS_11ZSTD_CCtx_sEPKvmNS_21ZSTD_dictLoadMethod_eENS_22ZSTD_dictContentType_eE.exit, label %9

9:                                                ; preds = %6
  %10 = getelementptr inbounds nuw i8, ptr %0, i64 904
  %11 = load i64, ptr %10, align 8, !tbaa !64
  %.not28.i = icmp eq i64 %11, 0
  br i1 %.not28.i, label %12, label %_ZN11duckdb_zstd33ZSTD_CCtx_loadDictionary_advancedEPNS_11ZSTD_CCtx_sEPKvmNS_21ZSTD_dictLoadMethod_eENS_22ZSTD_dictContentType_eE.exit

12:                                               ; preds = %9
  %13 = getelementptr inbounds nuw i8, ptr %0, i64 872
  %.sroa.0.0.copyload.i = load ptr, ptr %13, align 8, !tbaa !61
  %.not.i.i = icmp eq ptr %.sroa.0.0.copyload.i, null
  br i1 %.not.i.i, label %16, label %14

14:                                               ; preds = %12
  %.sroa.230.0..sroa_idx.i = getelementptr inbounds nuw i8, ptr %0, i64 888
  %.sroa.230.0.copyload.i = load ptr, ptr %.sroa.230.0..sroa_idx.i, align 8, !tbaa !61
  %15 = tail call noundef ptr %.sroa.0.0.copyload.i(ptr noundef %.sroa.230.0.copyload.i, i64 noundef %2)
  br label %_ZN11duckdb_zstdL17ZSTD_customMallocEmNS_14ZSTD_customMemE.exit.i

16:                                               ; preds = %12
  %17 = tail call noalias ptr @malloc(i64 noundef %2) #27
  br label %_ZN11duckdb_zstdL17ZSTD_customMallocEmNS_14ZSTD_customMemE.exit.i

_ZN11duckdb_zstdL17ZSTD_customMallocEmNS_14ZSTD_customMemE.exit.i: ; preds = %16, %14
  %.0.i.i = phi ptr [ %15, %14 ], [ %17, %16 ]
  %18 = icmp eq ptr %.0.i.i, null
  br i1 %18, label %_ZN11duckdb_zstd33ZSTD_CCtx_loadDictionary_advancedEPNS_11ZSTD_CCtx_sEPKvmNS_21ZSTD_dictLoadMethod_eENS_22ZSTD_dictContentType_eE.exit, label %19

19:                                               ; preds = %_ZN11duckdb_zstdL17ZSTD_customMallocEmNS_14ZSTD_customMemE.exit.i
  tail call void @llvm.memcpy.p0.p0.i64(ptr nonnull align 1 %.0.i.i, ptr nonnull align 1 %1, i64 %2, i1 false)
  %20 = getelementptr inbounds nuw i8, ptr %0, i64 3656
  store ptr %.0.i.i, ptr %20, align 8, !tbaa !137
  %21 = getelementptr inbounds nuw i8, ptr %0, i64 3664
  store ptr %.0.i.i, ptr %21, align 8, !tbaa !138
  %22 = getelementptr inbounds nuw i8, ptr %0, i64 3672
  store i64 %2, ptr %22, align 8, !tbaa !139
  %23 = getelementptr inbounds nuw i8, ptr %0, i64 3680
  store i32 0, ptr %23, align 8, !tbaa !140
  br label %_ZN11duckdb_zstd33ZSTD_CCtx_loadDictionary_advancedEPNS_11ZSTD_CCtx_sEPKvmNS_21ZSTD_dictLoadMethod_eENS_22ZSTD_dictContentType_eE.exit

_ZN11duckdb_zstd33ZSTD_CCtx_loadDictionary_advancedEPNS_11ZSTD_CCtx_sEPKvmNS_21ZSTD_dictLoadMethod_eENS_22ZSTD_dictContentType_eE.exit: ; preds = %3, %6, %9, %_ZN11duckdb_zstdL17ZSTD_customMallocEmNS_14ZSTD_customMemE.exit.i, %19
  %.024.i = phi i64 [ 0, %19 ], [ -60, %3 ], [ 0, %6 ], [ -64, %9 ], [ -64, %_ZN11duckdb_zstdL17ZSTD_customMallocEmNS_14ZSTD_customMemE.exit.i ]
  ret i64 %.024.i
}